; Function Attrs: mustprogress uwtable
define noundef ptr @_ZNK6google8protobuf13SourceContext18_InternalSerializeEPhPNS0_2io19EpsCopyOutputStreamE(ptr nocapture noundef nonnull readonly align 8 dereferenceable(32) %this, ptr noundef %target, ptr noundef %stream) unnamed_addr #3 align 2 {
entry:
  %0 = getelementptr inbounds i8, ptr %this, i64 16
  %1 = load ptr, ptr %0, align 8
  %2 = ptrtoint ptr %1 to i64
  %and.i.i = and i64 %2, -4
  %3 = inttoptr i64 %and.i.i to ptr
  %call2 = tail call noundef zeroext i1 @_ZNKSt7__cxx1112basic_stringIcSt11char_traitsIcESaIcEE5emptyEv(ptr noundef nonnull align 8 dereferenceable(32) %3) #15
  br i1 %call2, label %if.end, label %if.then

if.then:                                          ; preds = %entry
  %4 = load ptr, ptr %0, align 8
  %5 = ptrtoint ptr %4 to i64
  %and.i.i6 = and i64 %5, -4
  %6 = inttoptr i64 %and.i.i6 to ptr
  %call4 = tail call noundef ptr @_ZNKSt7__cxx1112basic_stringIcSt11char_traitsIcESaIcEE4dataEv(ptr noundef nonnull align 8 dereferenceable(32) %6) #15
  %call5 = tail call noundef i64 @_ZNKSt7__cxx1112basic_stringIcSt11char_traitsIcESaIcEE6lengthEv(ptr noundef nonnull align 8 dereferenceable(32) %6) #15
  %conv = trunc i64 %call5 to i32
  %call6 = tail call noundef zeroext i1 @_ZN6google8protobuf8internal14WireFormatLite16VerifyUtf8StringEPKciNS2_9OperationES4_(ptr noundef %call4, i32 noundef %conv, i32 noundef 1, ptr noundef nonnull @.str.2)
  %call.i = tail call noundef i64 @_ZNKSt7__cxx1112basic_stringIcSt11char_traitsIcESaIcEE4sizeEv(ptr noundef nonnull align 8 dereferenceable(32) %6) #15
  %cmp.i = icmp sgt i64 %call.i, 127
  br i1 %cmp.i, label %if.then.i7, label %lor.rhs.i

lor.rhs.i:                                        ; preds = %if.then
  %7 = load ptr, ptr %stream, align 8
  %sub.ptr.lhs.cast.i = ptrtoint ptr %7 to i64
  %sub.ptr.rhs.cast.i = ptrtoint ptr %target to i64
  %reass.sub = sub i64 %sub.ptr.lhs.cast.i, %sub.ptr.rhs.cast.i
  %sub3.i = add i64 %reass.sub, 14
  %cmp4.i = icmp slt i64 %sub3.i, %call.i
  br i1 %cmp4.i, label %if.then.i7, label %if.end.i

if.then.i7:                                       ; preds = %lor.rhs.i, %if.then
  %call6.i = tail call noundef ptr @_ZN6google8protobuf2io19EpsCopyOutputStream30WriteStringMaybeAliasedOutlineEjRKNSt7__cxx1112basic_stringIcSt11char_traitsIcESaIcEEEPh(ptr noundef nonnull align 8 dereferenceable(60) %stream, i32 noundef 1, ptr noundef nonnull align 8 dereferenceable(32) %6, ptr noundef %target)
  br label %if.end

if.end.i:                                         ; preds = %lor.rhs.i
  %incdec.ptr2.i.i = getelementptr inbounds i8, ptr %target, i64 1
  store i8 10, ptr %target, align 1
  %conv9.i = trunc i64 %call.i to i8
  %incdec.ptr.i = getelementptr inbounds i8, ptr %target, i64 2
  store i8 %conv9.i, ptr %incdec.ptr2.i.i, align 1
  %call10.i = tail call noundef ptr @_ZNKSt7__cxx1112basic_stringIcSt11char_traitsIcESaIcEE4dataEv(ptr noundef nonnull align 8 dereferenceable(32) %6) #15
  tail call void @llvm.memcpy.p0.p0.i64(ptr nonnull align 1 %incdec.ptr.i, ptr align 1 %call10.i, i64 %call.i, i1 false)
  %add.ptr.i = getelementptr inbounds i8, ptr %incdec.ptr.i, i64 %call.i
  br label %if.end

if.end:                                           ; preds = %if.end.i, %if.then.i7, %entry
  %target.addr.0 = phi ptr [ %target, %entry ], [ %call6.i, %if.then.i7 ], [ %add.ptr.i, %if.end.i ]
  %_internal_metadata_ = getelementptr inbounds i8, ptr %this, i64 8
  %8 = load i64, ptr %_internal_metadata_, align 8
  %and.i21 = and i64 %8, 1
  %tobool.i22.not = icmp eq i64 %and.i21, 0
  br i1 %tobool.i22.not, label %if.end14, label %if.then.i

if.then.i:                                        ; preds = %if.end
  %and.i = and i64 %8, -2
  %9 = inttoptr i64 %and.i to ptr
  %unknown_fields.i = getelementptr inbounds i8, ptr %9, i64 8
  %call13 = tail call noundef ptr @_ZN6google8protobuf8internal10WireFormat37InternalSerializeUnknownFieldsToArrayERKNS0_15UnknownFieldSetEPhPNS0_2io19EpsCopyOutputStreamE(ptr noundef nonnull align 8 dereferenceable(24) %unknown_fields.i, ptr noundef %target.addr.0, ptr noundef %stream)
  br label %if.end14

if.end14:                                         ; preds = %if.then.i, %if.end
  %target.addr.1 = phi ptr [ %call13, %if.then.i ], [ %target.addr.0, %if.end ]
  ret ptr %target.addr.1
}